; Function Attrs: nounwind uwtable
define internal noundef ptr @deque_inplace_concat(ptr noundef %0, ptr noundef %1) #0 {
  %3 = tail call fastcc ptr @deque_extend_impl(ptr noundef %0, ptr noundef %1)
  %4 = icmp eq ptr %3, null
  br i1 %4, label %Py_DECREF.exit, label %5

5:                                                ; preds = %2
  %6 = load i32, ptr %0, align 8, !tbaa !20
  %7 = icmp slt i32 %6, 0
  br i1 %7, label %Py_INCREF.exit, label %8

8:                                                ; preds = %5
  %9 = add nuw i32 %6, 1
  store i32 %9, ptr %0, align 8, !tbaa !20
  br label %Py_INCREF.exit

Py_INCREF.exit:                                   ; preds = %5, %8
  %10 = load i32, ptr %3, align 8, !tbaa !20
  %.not.i = icmp sgt i32 %10, -1
  br i1 %.not.i, label %11, label %Py_DECREF.exit

11:                                               ; preds = %Py_INCREF.exit
  %12 = add nsw i32 %10, -1
  store i32 %12, ptr %3, align 8, !tbaa !20
  %13 = icmp eq i32 %12, 0
  br i1 %13, label %14, label %Py_DECREF.exit

14:                                               ; preds = %11
  tail call void @_Py_Dealloc(ptr noundef nonnull %3) #9
  br label %Py_DECREF.exit

Py_DECREF.exit:                                   ; preds = %14, %11, %Py_INCREF.exit, %2
  %.0 = phi ptr [ null, %2 ], [ %0, %Py_INCREF.exit ], [ %0, %11 ], [ %0, %14 ]
  ret ptr %.0
}